
main.elf:     file format elf32-littleriscv

SYMBOL TABLE:
01000000 l    d  .text	00000000 .text
80000000 l    d  .data	00000000 .data
80000000 l    d  .bss	00000000 .bss
80003c00 l    d  .stack	00000000 .stack
00000000 l    d  .riscv.attributes	00000000 .riscv.attributes
00000000 l    df *ABS*	00000000 main.o
01000070 l       .text	00000000 LOOP1
010000a8 l       .text	00000000 HALT
01000094 l       .text	00000000 LOOP2
010000a0 l       .text	00000000 FOUND
01000000 g     F .text	00000000 reset_handler
010000ac g       .text	00000000 _sidata
80000000 g       .bss	00000000 _sbss
00000400 g       *ABS*	00000000 __stack_size
80000000 g       .data	00000000 _sdata
80000000 g       .bss	00000000 _ebss
80000000 g       .data	00000000 _edata



Disassembly of section .text:

01000000 <reset_handler>:
 1000000:	800006b7          	lui	a3,0x80000
 1000004:	00100513          	li	a0,1
 1000008:	00a6a023          	sw	a0,0(a3) # 80000000 <_ebss+0x0>
 100000c:	00300513          	li	a0,3
 1000010:	00a6a223          	sw	a0,4(a3)
 1000014:	00700513          	li	a0,7
 1000018:	00a6a423          	sw	a0,8(a3)
 100001c:	00900513          	li	a0,9
 1000020:	00a6a623          	sw	a0,12(a3)
 1000024:	00b00513          	li	a0,11
 1000028:	00a6a823          	sw	a0,16(a3)
 100002c:	00d00513          	li	a0,13
 1000030:	00a6aa23          	sw	a0,20(a3)
 1000034:	00f00513          	li	a0,15
 1000038:	00a6ac23          	sw	a0,24(a3)
 100003c:	01100513          	li	a0,17
 1000040:	00a6ae23          	sw	a0,28(a3)
 1000044:	01300513          	li	a0,19
 1000048:	02a6a023          	sw	a0,32(a3)
 100004c:	01500513          	li	a0,21
 1000050:	02a6a223          	sw	a0,36(a3)
 1000054:	01700513          	li	a0,23
 1000058:	02a6a423          	sw	a0,40(a3)
 100005c:	00d00533          	add	a0,zero,a3
 1000060:	01500593          	li	a1,21
 1000064:	00b00613          	li	a2,11
 1000068:	00000313          	li	t1,0
 100006c:	fff60393          	addi	t2,a2,-1

01000070 <LOOP1>:
 1000070:	0263cc63          	blt	t2,t1,10000a8 <HALT>
 1000074:	007302b3          	add	t0,t1,t2
 1000078:	4012d293          	srai	t0,t0,0x1
 100007c:	00229e93          	slli	t4,t0,0x2
 1000080:	01d50eb3          	add	t4,a0,t4
 1000084:	000eae83          	lw	t4,0(t4)
 1000088:	00bed663          	bge	t4,a1,1000094 <LOOP2>
 100008c:	00128313          	addi	t1,t0,1
 1000090:	fe1ff06f          	j	1000070 <LOOP1>

01000094 <LOOP2>:
 1000094:	01d58663          	beq	a1,t4,10000a0 <FOUND>
 1000098:	fff28393          	addi	t2,t0,-1
 100009c:	fd5ff06f          	j	1000070 <LOOP1>

010000a0 <FOUND>:
 10000a0:	00229113          	slli	sp,t0,0x2
 10000a4:	00012083          	lw	ra,0(sp)

010000a8 <HALT>:
 10000a8:	00000073          	ecall
