
main.elf:     file format elf32-littleriscv

SYMBOL TABLE:
01000000 l    d  .text	00000000 .text
80000000 l    d  .data	00000000 .data
80000000 l    d  .bss	00000000 .bss
80003c00 l    d  .stack	00000000 .stack
00000000 l    d  .riscv.attributes	00000000 .riscv.attributes
00000000 l    df *ABS*	00000000 main.o
0100007c l       .text	00000000 LOOP1
010000c0 l       .text	00000000 HALT
010000a0 l       .text	00000000 LOOP2
010000ac l       .text	00000000 FOUND
010000c8 l       .text	00000000 END
01000000 g     F .text	00000000 reset_handler
010000cc g       .text	00000000 _sidata
80000000 g       .bss	00000000 _sbss
00000400 g       *ABS*	00000000 __stack_size
80000000 g       .data	00000000 _sdata
80000000 g       .bss	00000000 _ebss
80000000 g       .data	00000000 _edata



Disassembly of section .text:

01000000 <reset_handler>:
 1000000:	800006b7          	lui	a3,0x80000
 1000004:	001007b7          	lui	a5,0x100
 1000008:	0007aa23          	sw	zero,20(a5) # 100014 <__stack_size+0xffc14>
 100000c:	00100513          	li	a0,1
 1000010:	00a6a023          	sw	a0,0(a3) # 80000000 <_ebss+0x0>
 1000014:	00300513          	li	a0,3
 1000018:	00a6a223          	sw	a0,4(a3)
 100001c:	00700513          	li	a0,7
 1000020:	00a6a423          	sw	a0,8(a3)
 1000024:	00900513          	li	a0,9
 1000028:	00a6a623          	sw	a0,12(a3)
 100002c:	00b00513          	li	a0,11
 1000030:	00a6a823          	sw	a0,16(a3)
 1000034:	00d00513          	li	a0,13
 1000038:	00a6aa23          	sw	a0,20(a3)
 100003c:	00f00513          	li	a0,15
 1000040:	00a6ac23          	sw	a0,24(a3)
 1000044:	01100513          	li	a0,17
 1000048:	00a6ae23          	sw	a0,28(a3)
 100004c:	01300513          	li	a0,19
 1000050:	02a6a023          	sw	a0,32(a3)
 1000054:	01500513          	li	a0,21
 1000058:	02a6a223          	sw	a0,36(a3)
 100005c:	01700513          	li	a0,23
 1000060:	02a6a423          	sw	a0,40(a3)
 1000064:	00d00533          	add	a0,zero,a3
 1000068:	0107a583          	lw	a1,16(a5)
 100006c:	00b7aa23          	sw	a1,20(a5)
 1000070:	00b00613          	li	a2,11
 1000074:	00000313          	li	t1,0
 1000078:	fff60393          	addi	t2,a2,-1

0100007c <LOOP1>:
 100007c:	0463c263          	blt	t2,t1,10000c0 <HALT>
 1000080:	007302b3          	add	t0,t1,t2
 1000084:	4012d293          	srai	t0,t0,0x1
 1000088:	00229e93          	slli	t4,t0,0x2
 100008c:	01d50eb3          	add	t4,a0,t4
 1000090:	000eae83          	lw	t4,0(t4)
 1000094:	00bed663          	bge	t4,a1,10000a0 <LOOP2>
 1000098:	00128313          	addi	t1,t0,1
 100009c:	fe1ff06f          	j	100007c <LOOP1>

010000a0 <LOOP2>:
 10000a0:	01d58663          	beq	a1,t4,10000ac <FOUND>
 10000a4:	fff28393          	addi	t2,t0,-1
 10000a8:	fd5ff06f          	j	100007c <LOOP1>

010000ac <FOUND>:
 10000ac:	00229113          	slli	sp,t0,0x2
 10000b0:	00d10133          	add	sp,sp,a3
 10000b4:	00012083          	lw	ra,0(sp)
 10000b8:	0057aa23          	sw	t0,20(a5)
 10000bc:	00c0006f          	j	10000c8 <END>

010000c0 <HALT>:
 10000c0:	fff00813          	li	a6,-1
 10000c4:	0107aa23          	sw	a6,20(a5)

010000c8 <END>:
 10000c8:	00000073          	ecall
