
main.elf:     file format elf32-littleriscv

SYMBOL TABLE:
01000000 l    d  .text	00000000 .text
80000000 l    d  .data	00000000 .data
80000000 l    d  .bss	00000000 .bss
80000c00 l    d  .stack	00000000 .stack
00000000 l    d  .riscv.attributes	00000000 .riscv.attributes
00000000 l    df *ABS*	00000000 main.o
01000024 l       .text	00000000 continue
01000030 l       .text	00000000 oddn1
0100003c l       .text	00000000 oddn2
01000040 l       .text	00000000 loopi
01000054 l       .text	00000000 pos
0100005c l       .text	00000000 loopj
01000064 l       .text	00000000 loopk
01000088 l       .text	00000000 endi
01000000 g     F .text	00000000 reset_handler
01000090 g       .text	00000000 _sidata
80000000 g       .bss	00000000 _sbss
00000400 g       *ABS*	00000000 __stack_size
80000000 g       .data	00000000 _sdata
80000000 g       .bss	00000000 _ebss
80000000 g       .data	00000000 _edata



Disassembly of section .text:

01000000 <reset_handler>:
 1000000:	000383b3          	add	t2,t2,zero
 1000004:	00100137          	lui	sp,0x100
 1000008:	01011283          	lh	t0,16(sp) # 100010 <__stack_size+0xffc10>
 100000c:	00512a23          	sw	t0,20(sp)
 1000010:	00800313          	li	t1,8
 1000014:	00500933          	add	s2,zero,t0
 1000018:	0062c663          	blt	t0,t1,1000024 <continue>
 100001c:	00600933          	add	s2,zero,t1
 1000020:	00500333          	add	t1,zero,t0

01000024 <continue>:
 1000024:	00197493          	andi	s1,s2,1
 1000028:	00049463          	bnez	s1,1000030 <oddn1>
 100002c:	00190913          	addi	s2,s2,1

01000030 <oddn1>:
 1000030:	00137513          	andi	a0,t1,1
 1000034:	00051463          	bnez	a0,100003c <oddn2>
 1000038:	fff30313          	addi	t1,t1,-1

0100003c <oddn2>:
 100003c:	00130313          	addi	t1,t1,1

01000040 <loopi>:
 1000040:	00100a13          	li	s4,1
 1000044:	00090ab3          	add	s5,s2,zero
 1000048:	00095663          	bgez	s2,1000054 <pos>
 100004c:	41500ab3          	neg	s5,s5
 1000050:	fff00a13          	li	s4,-1

01000054 <pos>:
 1000054:	00300f93          	li	t6,3
 1000058:	00000f33          	add	t5,zero,zero

0100005c <loopj>:
 100005c:	000efe93          	andi	t4,t4,0
 1000060:	000e7e13          	andi	t3,t3,0

01000064 <loopk>:
 1000064:	014e0e33          	add	t3,t3,s4
 1000068:	001e8e93          	addi	t4,t4,1
 100006c:	ff5ecce3          	blt	t4,s5,1000064 <loopk>
 1000070:	000e0a13          	mv	s4,t3
 1000074:	ffff8f93          	addi	t6,t6,-1
 1000078:	ffef92e3          	bne	t6,t5,100005c <loopj>
 100007c:	014383b3          	add	t2,t2,s4
 1000080:	00290913          	addi	s2,s2,2
 1000084:	fa694ee3          	blt	s2,t1,1000040 <loopi>

01000088 <endi>:
 1000088:	00712a23          	sw	t2,20(sp)
 100008c:	00000073          	ecall
