
main.elf:     file format elf32-littleriscv


Disassembly of section .text:

01000000 <reset_handler-0x80>:
 1000000:	b7e15163          	bge	sp,t5,fff362 <__stack_size+0xffef62>
 1000004:	cb1c                	.2byte	0xcb1c
 1000006:	5618                	.2byte	0x5618
 1000008:	44d5                	.2byte	0x44d5
 100000a:	f450                	.2byte	0xf450
 100000c:	be8e                	.2byte	0xbe8e
 100000e:	38479287          	.4byte	0x38479287
 1000012:	b20030bf 2bb9cef6 	.8byte	0x2bb9cef6b20030bf
 100001a:	6d2e                	.2byte	0x6d2e
 100001c:	a572                	.2byte	0xa572
 100001e:	0b65                	.2byte	0xb65
 1000020:	a99d1f2b          	.4byte	0xa99d1f2b
 1000024:	98e4                	.2byte	0x98e4
 1000026:	47d4                	.2byte	0x47d4
 1000028:	129d                	.2byte	0x129d
 100002a:	e60c                	.2byte	0xe60c
 100002c:	8c56                	.2byte	0x8c56
 100002e:	060f8443          	.4byte	0x60f8443
 1000032:	7fc8227b          	.4byte	0x7fc8227b
 1000036:	c0b2                	.2byte	0xc0b2
 1000038:	f981                	.2byte	0xf981
 100003a:	5ee9                	.2byte	0x5ee9
 100003c:	733a                	.2byte	0x733a
 100003e:	fd21                	.2byte	0xfd21
 1000044:	66ac                	.2byte	0x66ac
 1000046:	3990                	.2byte	0x3990
 1000048:	e065                	.2byte	0xe065
 100004a:	5a1ed7c7          	.4byte	0x5a1ed7c7
 100004e:	75ff                	.2byte	0x75ff
 1000050:	1436d3d7          	.4byte	0x1436d3d7
 1000054:	4d90                	.2byte	0x4d90
 1000056:	b26e                	.2byte	0xb26e
 1000058:	c749                	.2byte	0xc749
 100005a:	50a5                	.2byte	0x50a5
 100005c:	4102                	.2byte	0x4102
 100005e:	eedd                	.2byte	0xeedd
 1000060:	8d14babb          	.4byte	0x8d14babb
 1000064:	3474                	.2byte	0x3474
 1000066:	2b4c                	.2byte	0x2b4c
 1000068:	ae2d                	.2byte	0xae2d
 100006a:	27e6c983          	lbu	s3,638(a3)
 100006e:	a19f67bb          	.4byte	0xa19f67bb
 1000072:	05f2                	.2byte	0x5f2
 1000074:	1b58                	.2byte	0x1b58
 1000076:	a42a                	.2byte	0xa42a
 1000078:	9511                	.2byte	0x9511
 100007a:	4261                	.2byte	0x4261
 100007c:	0eca                	.2byte	0xeca
 100007e:	e099                	.2byte	0xe099

01000080 <reset_handler>:
 1000080:	7f004117          	auipc	sp,0x7f004
 1000084:	f8010113          	addi	sp,sp,-128 # 80004000 <_sp>
 1000088:	00000513          	li	a0,0
 100008c:	00000593          	li	a1,0
 1000090:	00000097          	auipc	ra,0x0
 1000094:	008080e7          	jalr	8(ra) # 1000098 <startup>

01000098 <startup>:
 1000098:	ff010113          	addi	sp,sp,-16
 100009c:	00112623          	sw	ra,12(sp)
 10000a0:	00812423          	sw	s0,8(sp)
 10000a4:	01010413          	addi	s0,sp,16
 10000a8:	800007b7          	lui	a5,0x80000
 10000ac:	00078713          	mv	a4,a5
 10000b0:	800007b7          	lui	a5,0x80000
 10000b4:	00078793          	mv	a5,a5
 10000b8:	40f707b3          	sub	a5,a4,a5
 10000bc:	00078613          	mv	a2,a5
 10000c0:	010017b7          	lui	a5,0x1001
 10000c4:	8dc78593          	addi	a1,a5,-1828 # 10008dc <_sidata>
 10000c8:	800007b7          	lui	a5,0x80000
 10000cc:	00078513          	mv	a0,a5
 10000d0:	00000097          	auipc	ra,0x0
 10000d4:	58c080e7          	jalr	1420(ra) # 100065c <memcpy>
 10000d8:	800007b7          	lui	a5,0x80000
 10000dc:	00078713          	mv	a4,a5
 10000e0:	800007b7          	lui	a5,0x80000
 10000e4:	00078793          	mv	a5,a5
 10000e8:	40f707b3          	sub	a5,a4,a5
 10000ec:	00078613          	mv	a2,a5
 10000f0:	00000593          	li	a1,0
 10000f4:	800007b7          	lui	a5,0x80000
 10000f8:	00078513          	mv	a0,a5
 10000fc:	00000097          	auipc	ra,0x0
 1000100:	704080e7          	jalr	1796(ra) # 1000800 <memset>
 1000104:	00000097          	auipc	ra,0x0
 1000108:	014080e7          	jalr	20(ra) # 1000118 <main>
 100010c:	00100073          	ebreak
 1000110:	00000013          	nop
 1000114:	ffdff06f          	j	1000110 <startup+0x78>

01000118 <main>:
 1000118:	ef010113          	addi	sp,sp,-272
 100011c:	10112623          	sw	ra,268(sp)
 1000120:	10812423          	sw	s0,264(sp)
 1000124:	10912223          	sw	s1,260(sp)
 1000128:	11212023          	sw	s2,256(sp)
 100012c:	0f312e23          	sw	s3,252(sp)
 1000130:	0f412c23          	sw	s4,248(sp)
 1000134:	0f512a23          	sw	s5,244(sp)
 1000138:	0f612823          	sw	s6,240(sp)
 100013c:	0f712623          	sw	s7,236(sp)
 1000140:	0f812423          	sw	s8,232(sp)
 1000144:	0f912223          	sw	s9,228(sp)
 1000148:	11010413          	addi	s0,sp,272
 100014c:	00010793          	mv	a5,sp
 1000150:	00078493          	mv	s1,a5
 1000154:	00400793          	li	a5,4
 1000158:	faf42c23          	sw	a5,-72(s0)
 100015c:	00f00793          	li	a5,15
 1000160:	faf42a23          	sw	a5,-76(s0)
 1000164:	010007b7          	lui	a5,0x1000
 1000168:	00078713          	mv	a4,a5
 100016c:	f1040793          	addi	a5,s0,-240
 1000170:	00070693          	mv	a3,a4
 1000174:	08000713          	li	a4,128
 1000178:	00070613          	mv	a2,a4
 100017c:	00068593          	mv	a1,a3
 1000180:	00078513          	mv	a0,a5
 1000184:	00000097          	auipc	ra,0x0
 1000188:	4d8080e7          	jalr	1240(ra) # 100065c <memcpy>
 100018c:	fb842783          	lw	a5,-72(s0)
 1000190:	00078713          	mv	a4,a5
 1000194:	fff70713          	addi	a4,a4,-1
 1000198:	fae42823          	sw	a4,-80(s0)
 100019c:	00078c13          	mv	s8,a5
 10001a0:	00000c93          	li	s9,0
 10001a4:	01bc5713          	srli	a4,s8,0x1b
 10001a8:	005c9a93          	slli	s5,s9,0x5
 10001ac:	01576ab3          	or	s5,a4,s5
 10001b0:	005c1a13          	slli	s4,s8,0x5
 10001b4:	00078b13          	mv	s6,a5
 10001b8:	00000b93          	li	s7,0
 10001bc:	01bb5713          	srli	a4,s6,0x1b
 10001c0:	005b9993          	slli	s3,s7,0x5
 10001c4:	013769b3          	or	s3,a4,s3
 10001c8:	005b1913          	slli	s2,s6,0x5
 10001cc:	00279793          	slli	a5,a5,0x2
 10001d0:	00f78793          	addi	a5,a5,15 # 100000f <__stack_size+0xfffc0f>
 10001d4:	0047d793          	srli	a5,a5,0x4
 10001d8:	00479793          	slli	a5,a5,0x4
 10001dc:	40f10133          	sub	sp,sp,a5
 10001e0:	00010793          	mv	a5,sp
 10001e4:	00378793          	addi	a5,a5,3
 10001e8:	0027d793          	srli	a5,a5,0x2
 10001ec:	00279793          	slli	a5,a5,0x2
 10001f0:	faf42623          	sw	a5,-84(s0)
 10001f4:	fc042423          	sw	zero,-56(s0)
 10001f8:	fc042223          	sw	zero,-60(s0)
 10001fc:	fc042623          	sw	zero,-52(s0)
 1000200:	fc042023          	sw	zero,-64(s0)
 1000204:	fa042e23          	sw	zero,-68(s0)
 1000208:	1840006f          	j	100038c <main+0x274>
 100020c:	00300793          	li	a5,3
 1000210:	f8f42a23          	sw	a5,-108(s0)
 1000214:	02000713          	li	a4,32
 1000218:	f9442783          	lw	a5,-108(s0)
 100021c:	40f707b3          	sub	a5,a4,a5
 1000220:	f8f42823          	sw	a5,-112(s0)
 1000224:	fcc42783          	lw	a5,-52(s0)
 1000228:	00279793          	slli	a5,a5,0x2
 100022c:	fd078793          	addi	a5,a5,-48
 1000230:	008787b3          	add	a5,a5,s0
 1000234:	f407a703          	lw	a4,-192(a5)
 1000238:	fc842683          	lw	a3,-56(s0)
 100023c:	fc442783          	lw	a5,-60(s0)
 1000240:	00f687b3          	add	a5,a3,a5
 1000244:	00f70733          	add	a4,a4,a5
 1000248:	f9442783          	lw	a5,-108(s0)
 100024c:	00f71733          	sll	a4,a4,a5
 1000250:	fcc42783          	lw	a5,-52(s0)
 1000254:	00279793          	slli	a5,a5,0x2
 1000258:	fd078793          	addi	a5,a5,-48
 100025c:	008787b3          	add	a5,a5,s0
 1000260:	f407a683          	lw	a3,-192(a5)
 1000264:	fc842603          	lw	a2,-56(s0)
 1000268:	fc442783          	lw	a5,-60(s0)
 100026c:	00f607b3          	add	a5,a2,a5
 1000270:	00f686b3          	add	a3,a3,a5
 1000274:	f9042783          	lw	a5,-112(s0)
 1000278:	00f6d7b3          	srl	a5,a3,a5
 100027c:	00f76733          	or	a4,a4,a5
 1000280:	fcc42783          	lw	a5,-52(s0)
 1000284:	00279793          	slli	a5,a5,0x2
 1000288:	fd078793          	addi	a5,a5,-48
 100028c:	008787b3          	add	a5,a5,s0
 1000290:	f4e7a023          	sw	a4,-192(a5)
 1000294:	fcc42783          	lw	a5,-52(s0)
 1000298:	00279793          	slli	a5,a5,0x2
 100029c:	fd078793          	addi	a5,a5,-48
 10002a0:	008787b3          	add	a5,a5,s0
 10002a4:	f407a783          	lw	a5,-192(a5)
 10002a8:	fcf42423          	sw	a5,-56(s0)
 10002ac:	fc842703          	lw	a4,-56(s0)
 10002b0:	fc442783          	lw	a5,-60(s0)
 10002b4:	00f707b3          	add	a5,a4,a5
 10002b8:	01f7f793          	andi	a5,a5,31
 10002bc:	f8f42a23          	sw	a5,-108(s0)
 10002c0:	02000713          	li	a4,32
 10002c4:	f9442783          	lw	a5,-108(s0)
 10002c8:	40f707b3          	sub	a5,a4,a5
 10002cc:	f8f42823          	sw	a5,-112(s0)
 10002d0:	fac42703          	lw	a4,-84(s0)
 10002d4:	fc042783          	lw	a5,-64(s0)
 10002d8:	00279793          	slli	a5,a5,0x2
 10002dc:	00f707b3          	add	a5,a4,a5
 10002e0:	0007a703          	lw	a4,0(a5)
 10002e4:	fc842683          	lw	a3,-56(s0)
 10002e8:	fc442783          	lw	a5,-60(s0)
 10002ec:	00f687b3          	add	a5,a3,a5
 10002f0:	00f70733          	add	a4,a4,a5
 10002f4:	f9442783          	lw	a5,-108(s0)
 10002f8:	00f71733          	sll	a4,a4,a5
 10002fc:	fac42683          	lw	a3,-84(s0)
 1000300:	fc042783          	lw	a5,-64(s0)
 1000304:	00279793          	slli	a5,a5,0x2
 1000308:	00f687b3          	add	a5,a3,a5
 100030c:	0007a683          	lw	a3,0(a5)
 1000310:	fc842603          	lw	a2,-56(s0)
 1000314:	fc442783          	lw	a5,-60(s0)
 1000318:	00f607b3          	add	a5,a2,a5
 100031c:	00f686b3          	add	a3,a3,a5
 1000320:	f9042783          	lw	a5,-112(s0)
 1000324:	00f6d7b3          	srl	a5,a3,a5
 1000328:	00f76733          	or	a4,a4,a5
 100032c:	fac42683          	lw	a3,-84(s0)
 1000330:	fc042783          	lw	a5,-64(s0)
 1000334:	00279793          	slli	a5,a5,0x2
 1000338:	00f687b3          	add	a5,a3,a5
 100033c:	00e7a023          	sw	a4,0(a5)
 1000340:	fac42703          	lw	a4,-84(s0)
 1000344:	fc042783          	lw	a5,-64(s0)
 1000348:	00279793          	slli	a5,a5,0x2
 100034c:	00f707b3          	add	a5,a4,a5
 1000350:	0007a783          	lw	a5,0(a5)
 1000354:	fcf42223          	sw	a5,-60(s0)
 1000358:	fcc42783          	lw	a5,-52(s0)
 100035c:	00178793          	addi	a5,a5,1
 1000360:	01f7f793          	andi	a5,a5,31
 1000364:	fcf42623          	sw	a5,-52(s0)
 1000368:	fc042783          	lw	a5,-64(s0)
 100036c:	00178713          	addi	a4,a5,1
 1000370:	fb842783          	lw	a5,-72(s0)
 1000374:	fff78793          	addi	a5,a5,-1
 1000378:	00f777b3          	and	a5,a4,a5
 100037c:	fcf42023          	sw	a5,-64(s0)
 1000380:	fbc42783          	lw	a5,-68(s0)
 1000384:	00178793          	addi	a5,a5,1
 1000388:	faf42e23          	sw	a5,-68(s0)
 100038c:	fbc42703          	lw	a4,-68(s0)
 1000390:	05f00793          	li	a5,95
 1000394:	e6e7fce3          	bgeu	a5,a4,100020c <main+0xf4>
 1000398:	00100793          	li	a5,1
 100039c:	f0f42423          	sw	a5,-248(s0)
 10003a0:	00100793          	li	a5,1
 10003a4:	f0f42623          	sw	a5,-244(s0)
 10003a8:	ee042c23          	sw	zero,-264(s0)
 10003ac:	ee042e23          	sw	zero,-260(s0)
 10003b0:	f0842703          	lw	a4,-248(s0)
 10003b4:	f1042783          	lw	a5,-240(s0)
 10003b8:	00f707b3          	add	a5,a4,a5
 10003bc:	fcf42423          	sw	a5,-56(s0)
 10003c0:	f0c42703          	lw	a4,-244(s0)
 10003c4:	f1442783          	lw	a5,-236(s0)
 10003c8:	00f707b3          	add	a5,a4,a5
 10003cc:	fcf42223          	sw	a5,-60(s0)
 10003d0:	00100793          	li	a5,1
 10003d4:	fcf42623          	sw	a5,-52(s0)
 10003d8:	0e80006f          	j	10004c0 <main+0x3a8>
 10003dc:	fcc42783          	lw	a5,-52(s0)
 10003e0:	00179793          	slli	a5,a5,0x1
 10003e4:	faf42423          	sw	a5,-88(s0)
 10003e8:	fc442783          	lw	a5,-60(s0)
 10003ec:	01f7f793          	andi	a5,a5,31
 10003f0:	f8f42e23          	sw	a5,-100(s0)
 10003f4:	02000713          	li	a4,32
 10003f8:	f9c42783          	lw	a5,-100(s0)
 10003fc:	40f707b3          	sub	a5,a4,a5
 1000400:	f8f42c23          	sw	a5,-104(s0)
 1000404:	fc842703          	lw	a4,-56(s0)
 1000408:	fc442783          	lw	a5,-60(s0)
 100040c:	00f74733          	xor	a4,a4,a5
 1000410:	f9c42783          	lw	a5,-100(s0)
 1000414:	00f71733          	sll	a4,a4,a5
 1000418:	fc842683          	lw	a3,-56(s0)
 100041c:	fc442783          	lw	a5,-60(s0)
 1000420:	00f6c6b3          	xor	a3,a3,a5
 1000424:	f9842783          	lw	a5,-104(s0)
 1000428:	00f6d7b3          	srl	a5,a3,a5
 100042c:	00f76733          	or	a4,a4,a5
 1000430:	fa842783          	lw	a5,-88(s0)
 1000434:	00279793          	slli	a5,a5,0x2
 1000438:	fd078793          	addi	a5,a5,-48
 100043c:	008787b3          	add	a5,a5,s0
 1000440:	f407a783          	lw	a5,-192(a5)
 1000444:	00f707b3          	add	a5,a4,a5
 1000448:	fcf42423          	sw	a5,-56(s0)
 100044c:	fc842783          	lw	a5,-56(s0)
 1000450:	01f7f793          	andi	a5,a5,31
 1000454:	f8f42e23          	sw	a5,-100(s0)
 1000458:	02000713          	li	a4,32
 100045c:	f9c42783          	lw	a5,-100(s0)
 1000460:	40f707b3          	sub	a5,a4,a5
 1000464:	f8f42c23          	sw	a5,-104(s0)
 1000468:	fc842703          	lw	a4,-56(s0)
 100046c:	fc442783          	lw	a5,-60(s0)
 1000470:	00f74733          	xor	a4,a4,a5
 1000474:	f9c42783          	lw	a5,-100(s0)
 1000478:	00f71733          	sll	a4,a4,a5
 100047c:	fc842683          	lw	a3,-56(s0)
 1000480:	fc442783          	lw	a5,-60(s0)
 1000484:	00f6c6b3          	xor	a3,a3,a5
 1000488:	f9842783          	lw	a5,-104(s0)
 100048c:	00f6d7b3          	srl	a5,a3,a5
 1000490:	00f76733          	or	a4,a4,a5
 1000494:	fa842783          	lw	a5,-88(s0)
 1000498:	00178793          	addi	a5,a5,1
 100049c:	00279793          	slli	a5,a5,0x2
 10004a0:	fd078793          	addi	a5,a5,-48
 10004a4:	008787b3          	add	a5,a5,s0
 10004a8:	f407a783          	lw	a5,-192(a5)
 10004ac:	00f707b3          	add	a5,a4,a5
 10004b0:	fcf42223          	sw	a5,-60(s0)
 10004b4:	fcc42783          	lw	a5,-52(s0)
 10004b8:	00178793          	addi	a5,a5,1
 10004bc:	fcf42623          	sw	a5,-52(s0)
 10004c0:	fcc42703          	lw	a4,-52(s0)
 10004c4:	fb442783          	lw	a5,-76(s0)
 10004c8:	f0e7fae3          	bgeu	a5,a4,10003dc <main+0x2c4>
 10004cc:	fc842783          	lw	a5,-56(s0)
 10004d0:	eef42c23          	sw	a5,-264(s0)
 10004d4:	fc442783          	lw	a5,-60(s0)
 10004d8:	eef42e23          	sw	a5,-260(s0)
 10004dc:	fb442783          	lw	a5,-76(s0)
 10004e0:	fcf42623          	sw	a5,-52(s0)
 10004e4:	10c0006f          	j	10005f0 <main+0x4d8>
 10004e8:	fcc42783          	lw	a5,-52(s0)
 10004ec:	00179793          	slli	a5,a5,0x1
 10004f0:	faf42423          	sw	a5,-88(s0)
 10004f4:	fc842783          	lw	a5,-56(s0)
 10004f8:	01f7f793          	andi	a5,a5,31
 10004fc:	faf42223          	sw	a5,-92(s0)
 1000500:	02000713          	li	a4,32
 1000504:	fa442783          	lw	a5,-92(s0)
 1000508:	40f707b3          	sub	a5,a4,a5
 100050c:	faf42023          	sw	a5,-96(s0)
 1000510:	fa842783          	lw	a5,-88(s0)
 1000514:	00178793          	addi	a5,a5,1
 1000518:	00279793          	slli	a5,a5,0x2
 100051c:	fd078793          	addi	a5,a5,-48
 1000520:	008787b3          	add	a5,a5,s0
 1000524:	f407a783          	lw	a5,-192(a5)
 1000528:	fc442703          	lw	a4,-60(s0)
 100052c:	40f70733          	sub	a4,a4,a5
 1000530:	fa442783          	lw	a5,-92(s0)
 1000534:	00f75733          	srl	a4,a4,a5
 1000538:	fa842783          	lw	a5,-88(s0)
 100053c:	00178793          	addi	a5,a5,1
 1000540:	00279793          	slli	a5,a5,0x2
 1000544:	fd078793          	addi	a5,a5,-48
 1000548:	008787b3          	add	a5,a5,s0
 100054c:	f407a783          	lw	a5,-192(a5)
 1000550:	fc442683          	lw	a3,-60(s0)
 1000554:	40f686b3          	sub	a3,a3,a5
 1000558:	fa042783          	lw	a5,-96(s0)
 100055c:	00f697b3          	sll	a5,a3,a5
 1000560:	00f767b3          	or	a5,a4,a5
 1000564:	fc842703          	lw	a4,-56(s0)
 1000568:	00f747b3          	xor	a5,a4,a5
 100056c:	fcf42223          	sw	a5,-60(s0)
 1000570:	fc442783          	lw	a5,-60(s0)
 1000574:	01f7f793          	andi	a5,a5,31
 1000578:	faf42223          	sw	a5,-92(s0)
 100057c:	02000713          	li	a4,32
 1000580:	fa442783          	lw	a5,-92(s0)
 1000584:	40f707b3          	sub	a5,a4,a5
 1000588:	faf42023          	sw	a5,-96(s0)
 100058c:	fa842783          	lw	a5,-88(s0)
 1000590:	00279793          	slli	a5,a5,0x2
 1000594:	fd078793          	addi	a5,a5,-48
 1000598:	008787b3          	add	a5,a5,s0
 100059c:	f407a783          	lw	a5,-192(a5)
 10005a0:	fc842703          	lw	a4,-56(s0)
 10005a4:	40f70733          	sub	a4,a4,a5
 10005a8:	fa442783          	lw	a5,-92(s0)
 10005ac:	00f75733          	srl	a4,a4,a5
 10005b0:	fa842783          	lw	a5,-88(s0)
 10005b4:	00279793          	slli	a5,a5,0x2
 10005b8:	fd078793          	addi	a5,a5,-48
 10005bc:	008787b3          	add	a5,a5,s0
 10005c0:	f407a783          	lw	a5,-192(a5)
 10005c4:	fc842683          	lw	a3,-56(s0)
 10005c8:	40f686b3          	sub	a3,a3,a5
 10005cc:	fa042783          	lw	a5,-96(s0)
 10005d0:	00f697b3          	sll	a5,a3,a5
 10005d4:	00f767b3          	or	a5,a4,a5
 10005d8:	fc442703          	lw	a4,-60(s0)
 10005dc:	00f747b3          	xor	a5,a4,a5
 10005e0:	fcf42423          	sw	a5,-56(s0)
 10005e4:	fcc42783          	lw	a5,-52(s0)
 10005e8:	fff78793          	addi	a5,a5,-1
 10005ec:	fcf42623          	sw	a5,-52(s0)
 10005f0:	fcc42783          	lw	a5,-52(s0)
 10005f4:	ee079ae3          	bnez	a5,10004e8 <main+0x3d0>
 10005f8:	f1442783          	lw	a5,-236(s0)
 10005fc:	fc442703          	lw	a4,-60(s0)
 1000600:	40f707b3          	sub	a5,a4,a5
 1000604:	f0f42223          	sw	a5,-252(s0)
 1000608:	f1042783          	lw	a5,-240(s0)
 100060c:	fc842703          	lw	a4,-56(s0)
 1000610:	40f707b3          	sub	a5,a4,a5
 1000614:	f0f42023          	sw	a5,-256(s0)
 1000618:	00000793          	li	a5,0
 100061c:	00048113          	mv	sp,s1
 1000620:	00078513          	mv	a0,a5
 1000624:	ef040113          	addi	sp,s0,-272
 1000628:	10c12083          	lw	ra,268(sp)
 100062c:	10812403          	lw	s0,264(sp)
 1000630:	10412483          	lw	s1,260(sp)
 1000634:	10012903          	lw	s2,256(sp)
 1000638:	0fc12983          	lw	s3,252(sp)
 100063c:	0f812a03          	lw	s4,248(sp)
 1000640:	0f412a83          	lw	s5,244(sp)
 1000644:	0f012b03          	lw	s6,240(sp)
 1000648:	0ec12b83          	lw	s7,236(sp)
 100064c:	0e812c03          	lw	s8,232(sp)
 1000650:	0e412c83          	lw	s9,228(sp)
 1000654:	11010113          	addi	sp,sp,272
 1000658:	00008067          	ret

0100065c <memcpy>:
 100065c:	00b547b3          	xor	a5,a0,a1
 1000660:	0037f793          	andi	a5,a5,3
 1000664:	00c508b3          	add	a7,a0,a2
 1000668:	06079463          	bnez	a5,10006d0 <memcpy+0x74>
 100066c:	00300793          	li	a5,3
 1000670:	06c7f063          	bgeu	a5,a2,10006d0 <memcpy+0x74>
 1000674:	00357793          	andi	a5,a0,3
 1000678:	00050713          	mv	a4,a0
 100067c:	06079a63          	bnez	a5,10006f0 <memcpy+0x94>
 1000680:	ffc8f613          	andi	a2,a7,-4
 1000684:	40e606b3          	sub	a3,a2,a4
 1000688:	02000793          	li	a5,32
 100068c:	08d7ce63          	blt	a5,a3,1000728 <memcpy+0xcc>
 1000690:	00058693          	mv	a3,a1
 1000694:	00070793          	mv	a5,a4
 1000698:	02c77863          	bgeu	a4,a2,10006c8 <memcpy+0x6c>
 100069c:	0006a803          	lw	a6,0(a3)
 10006a0:	00478793          	addi	a5,a5,4
 10006a4:	00468693          	addi	a3,a3,4
 10006a8:	ff07ae23          	sw	a6,-4(a5)
 10006ac:	fec7e8e3          	bltu	a5,a2,100069c <memcpy+0x40>
 10006b0:	fff60793          	addi	a5,a2,-1
 10006b4:	40e787b3          	sub	a5,a5,a4
 10006b8:	ffc7f793          	andi	a5,a5,-4
 10006bc:	00478793          	addi	a5,a5,4
 10006c0:	00f70733          	add	a4,a4,a5
 10006c4:	00f585b3          	add	a1,a1,a5
 10006c8:	01176863          	bltu	a4,a7,10006d8 <memcpy+0x7c>
 10006cc:	00008067          	ret
 10006d0:	00050713          	mv	a4,a0
 10006d4:	05157863          	bgeu	a0,a7,1000724 <memcpy+0xc8>
 10006d8:	0005c783          	lbu	a5,0(a1)
 10006dc:	00170713          	addi	a4,a4,1
 10006e0:	00158593          	addi	a1,a1,1
 10006e4:	fef70fa3          	sb	a5,-1(a4)
 10006e8:	fee898e3          	bne	a7,a4,10006d8 <memcpy+0x7c>
 10006ec:	00008067          	ret
 10006f0:	0005c683          	lbu	a3,0(a1)
 10006f4:	00170713          	addi	a4,a4,1
 10006f8:	00377793          	andi	a5,a4,3
 10006fc:	fed70fa3          	sb	a3,-1(a4)
 1000700:	00158593          	addi	a1,a1,1
 1000704:	f6078ee3          	beqz	a5,1000680 <memcpy+0x24>
 1000708:	0005c683          	lbu	a3,0(a1)
 100070c:	00170713          	addi	a4,a4,1
 1000710:	00377793          	andi	a5,a4,3
 1000714:	fed70fa3          	sb	a3,-1(a4)
 1000718:	00158593          	addi	a1,a1,1
 100071c:	fc079ae3          	bnez	a5,10006f0 <memcpy+0x94>
 1000720:	f61ff06f          	j	1000680 <memcpy+0x24>
 1000724:	00008067          	ret
 1000728:	ff010113          	addi	sp,sp,-16
 100072c:	00812623          	sw	s0,12(sp)
 1000730:	02000413          	li	s0,32
 1000734:	0005a383          	lw	t2,0(a1)
 1000738:	0045a283          	lw	t0,4(a1)
 100073c:	0085af83          	lw	t6,8(a1)
 1000740:	00c5af03          	lw	t5,12(a1)
 1000744:	0105ae83          	lw	t4,16(a1)
 1000748:	0145ae03          	lw	t3,20(a1)
 100074c:	0185a303          	lw	t1,24(a1)
 1000750:	01c5a803          	lw	a6,28(a1)
 1000754:	0205a683          	lw	a3,32(a1)
 1000758:	02470713          	addi	a4,a4,36
 100075c:	40e607b3          	sub	a5,a2,a4
 1000760:	fc772e23          	sw	t2,-36(a4)
 1000764:	fe572023          	sw	t0,-32(a4)
 1000768:	fff72223          	sw	t6,-28(a4)
 100076c:	ffe72423          	sw	t5,-24(a4)
 1000770:	ffd72623          	sw	t4,-20(a4)
 1000774:	ffc72823          	sw	t3,-16(a4)
 1000778:	fe672a23          	sw	t1,-12(a4)
 100077c:	ff072c23          	sw	a6,-8(a4)
 1000780:	fed72e23          	sw	a3,-4(a4)
 1000784:	02458593          	addi	a1,a1,36
 1000788:	faf446e3          	blt	s0,a5,1000734 <memcpy+0xd8>
 100078c:	00058693          	mv	a3,a1
 1000790:	00070793          	mv	a5,a4
 1000794:	02c77863          	bgeu	a4,a2,10007c4 <memcpy+0x168>
 1000798:	0006a803          	lw	a6,0(a3)
 100079c:	00478793          	addi	a5,a5,4
 10007a0:	00468693          	addi	a3,a3,4
 10007a4:	ff07ae23          	sw	a6,-4(a5)
 10007a8:	fec7e8e3          	bltu	a5,a2,1000798 <memcpy+0x13c>
 10007ac:	fff60793          	addi	a5,a2,-1
 10007b0:	40e787b3          	sub	a5,a5,a4
 10007b4:	ffc7f793          	andi	a5,a5,-4
 10007b8:	00478793          	addi	a5,a5,4
 10007bc:	00f70733          	add	a4,a4,a5
 10007c0:	00f585b3          	add	a1,a1,a5
 10007c4:	01176863          	bltu	a4,a7,10007d4 <memcpy+0x178>
 10007c8:	00c12403          	lw	s0,12(sp)
 10007cc:	01010113          	addi	sp,sp,16
 10007d0:	00008067          	ret
 10007d4:	0005c783          	lbu	a5,0(a1)
 10007d8:	00170713          	addi	a4,a4,1
 10007dc:	00158593          	addi	a1,a1,1
 10007e0:	fef70fa3          	sb	a5,-1(a4)
 10007e4:	fee882e3          	beq	a7,a4,10007c8 <memcpy+0x16c>
 10007e8:	0005c783          	lbu	a5,0(a1)
 10007ec:	00170713          	addi	a4,a4,1
 10007f0:	00158593          	addi	a1,a1,1
 10007f4:	fef70fa3          	sb	a5,-1(a4)
 10007f8:	fce89ee3          	bne	a7,a4,10007d4 <memcpy+0x178>
 10007fc:	fcdff06f          	j	10007c8 <memcpy+0x16c>

01000800 <memset>:
 1000800:	00f00313          	li	t1,15
 1000804:	00050713          	mv	a4,a0
 1000808:	02c37e63          	bgeu	t1,a2,1000844 <memset+0x44>
 100080c:	00f77793          	andi	a5,a4,15
 1000810:	0a079063          	bnez	a5,10008b0 <memset+0xb0>
 1000814:	08059263          	bnez	a1,1000898 <memset+0x98>
 1000818:	ff067693          	andi	a3,a2,-16
 100081c:	00f67613          	andi	a2,a2,15
 1000820:	00e686b3          	add	a3,a3,a4
 1000824:	00b72023          	sw	a1,0(a4)
 1000828:	00b72223          	sw	a1,4(a4)
 100082c:	00b72423          	sw	a1,8(a4)
 1000830:	00b72623          	sw	a1,12(a4)
 1000834:	01070713          	addi	a4,a4,16
 1000838:	fed766e3          	bltu	a4,a3,1000824 <memset+0x24>
 100083c:	00061463          	bnez	a2,1000844 <memset+0x44>
 1000840:	00008067          	ret
 1000844:	40c306b3          	sub	a3,t1,a2
 1000848:	00269693          	slli	a3,a3,0x2
 100084c:	00000297          	auipc	t0,0x0
 1000850:	005686b3          	add	a3,a3,t0
 1000854:	00c68067          	jr	12(a3)
 1000858:	00b70723          	sb	a1,14(a4)
 100085c:	00b706a3          	sb	a1,13(a4)
 1000860:	00b70623          	sb	a1,12(a4)
 1000864:	00b705a3          	sb	a1,11(a4)
 1000868:	00b70523          	sb	a1,10(a4)
 100086c:	00b704a3          	sb	a1,9(a4)
 1000870:	00b70423          	sb	a1,8(a4)
 1000874:	00b703a3          	sb	a1,7(a4)
 1000878:	00b70323          	sb	a1,6(a4)
 100087c:	00b702a3          	sb	a1,5(a4)
 1000880:	00b70223          	sb	a1,4(a4)
 1000884:	00b701a3          	sb	a1,3(a4)
 1000888:	00b70123          	sb	a1,2(a4)
 100088c:	00b700a3          	sb	a1,1(a4)
 1000890:	00b70023          	sb	a1,0(a4)
 1000894:	00008067          	ret
 1000898:	0ff5f593          	zext.b	a1,a1
 100089c:	00859693          	slli	a3,a1,0x8
 10008a0:	00d5e5b3          	or	a1,a1,a3
 10008a4:	01059693          	slli	a3,a1,0x10
 10008a8:	00d5e5b3          	or	a1,a1,a3
 10008ac:	f6dff06f          	j	1000818 <memset+0x18>
 10008b0:	00279693          	slli	a3,a5,0x2
 10008b4:	00000297          	auipc	t0,0x0
 10008b8:	005686b3          	add	a3,a3,t0
 10008bc:	00008293          	mv	t0,ra
 10008c0:	fa0680e7          	jalr	-96(a3)
 10008c4:	00028093          	mv	ra,t0
 10008c8:	ff078793          	addi	a5,a5,-16
 10008cc:	40f70733          	sub	a4,a4,a5
 10008d0:	00f60633          	add	a2,a2,a5
 10008d4:	f6c378e3          	bgeu	t1,a2,1000844 <memset+0x44>
 10008d8:	f3dff06f          	j	1000814 <memset+0x14>
