
main.elf:     file format elf32-littleriscv

SYMBOL TABLE:
01000000 l    d  .text	00000000 .text
80000000 l    d  .data	00000000 .data
80000000 l    d  .bss	00000000 .bss
80000c00 l    d  .stack	00000000 .stack
00000000 l    d  .riscv.attributes	00000000 .riscv.attributes
00000000 l    df *ABS*	00000000 main.o
01000000 g     F .text	00000000 reset_handler
0100041c g       .text	00000000 _sidata
80000000 g       .bss	00000000 _sbss
00000400 g       *ABS*	00000000 __stack_size
80000000 g       .data	00000000 _sdata
80000000 g       .bss	00000000 _ebss
80000000 g       .data	00000000 _edata



Disassembly of section .text:

01000000 <reset_handler>:
 1000000:	80000137          	lui	sp,0x80000
 1000004:	7fc10113          	addi	sp,sp,2044 # 800007fc <_ebss+0x7fc>
 1000008:	001002b7          	lui	t0,0x100
 100000c:	f3010113          	addi	sp,sp,-208
 1000010:	0c812423          	sw	s0,200(sp)
 1000014:	0d010413          	addi	s0,sp,208
 1000018:	00c00793          	li	a5,12
 100001c:	fef42023          	sw	a5,-32(s0)
 1000020:	f4c40793          	addi	a5,s0,-180
 1000024:	08000713          	li	a4,128
 1000028:	00070613          	mv	a2,a4
 100002c:	00000593          	li	a1,0
 1000030:	00078513          	mv	a0,a5
 1000034:	46f8f7b7          	lui	a5,0x46f8f
 1000038:	8c578793          	addi	a5,a5,-1851 # 46f8e8c5 <_sidata+0x45f8e4a9>
 100003c:	f4f42a23          	sw	a5,-172(s0)
 1000040:	460c67b7          	lui	a5,0x460c6
 1000044:	08578793          	addi	a5,a5,133 # 460c6085 <_sidata+0x450c5c69>
 1000048:	f4f42c23          	sw	a5,-168(s0)
 100004c:	70f847b7          	lui	a5,0x70f84
 1000050:	b8a78793          	addi	a5,a5,-1142 # 70f83b8a <_sidata+0x6ff8376e>
 1000054:	f4f42e23          	sw	a5,-164(s0)
 1000058:	284b87b7          	lui	a5,0x284b8
 100005c:	30378793          	addi	a5,a5,771 # 284b8303 <_sidata+0x274b7ee7>
 1000060:	f6f42023          	sw	a5,-160(s0)
 1000064:	513e17b7          	lui	a5,0x513e1
 1000068:	45478793          	addi	a5,a5,1108 # 513e1454 <_sidata+0x503e1038>
 100006c:	f6f42223          	sw	a5,-156(s0)
 1000070:	f621f7b7          	lui	a5,0xf621f
 1000074:	d2278793          	addi	a5,a5,-734 # f621ed22 <_ebss+0x7621ed22>
 1000078:	f6f42423          	sw	a5,-152(s0)
 100007c:	312507b7          	lui	a5,0x31250
 1000080:	65d78793          	addi	a5,a5,1629 # 3125065d <_sidata+0x30250241>
 1000084:	f6f42623          	sw	a5,-148(s0)
 1000088:	11a847b7          	lui	a5,0x11a84
 100008c:	a5d78793          	addi	a5,a5,-1443 # 11a83a5d <_sidata+0x10a83641>
 1000090:	f6f42823          	sw	a5,-144(s0)
 1000094:	d42777b7          	lui	a5,0xd4277
 1000098:	86b78793          	addi	a5,a5,-1941 # d427686b <_ebss+0x5427686b>
 100009c:	f6f42a23          	sw	a5,-140(s0)
 10000a0:	713ae7b7          	lui	a5,0x713ae
 10000a4:	82d78793          	addi	a5,a5,-2003 # 713ad82d <_sidata+0x703ad411>
 10000a8:	f6f42c23          	sw	a5,-136(s0)
 10000ac:	4b7937b7          	lui	a5,0x4b793
 10000b0:	f9978793          	addi	a5,a5,-103 # 4b792f99 <_sidata+0x4a792b7d>
 10000b4:	f6f42e23          	sw	a5,-132(s0)
 10000b8:	2799a7b7          	lui	a5,0x2799a
 10000bc:	4dd78793          	addi	a5,a5,1245 # 2799a4dd <_sidata+0x2699a0c1>
 10000c0:	f8f42023          	sw	a5,-128(s0)
 10000c4:	a79027b7          	lui	a5,0xa7902
 10000c8:	c4978793          	addi	a5,a5,-951 # a7901c49 <_ebss+0x27901c49>
 10000cc:	f8f42223          	sw	a5,-124(s0)
 10000d0:	dede87b7          	lui	a5,0xdede8
 10000d4:	71a78793          	addi	a5,a5,1818 # dede871a <_ebss+0x5ede871a>
 10000d8:	f8f42423          	sw	a5,-120(s0)
 10000dc:	36c037b7          	lui	a5,0x36c03
 10000e0:	19678793          	addi	a5,a5,406 # 36c03196 <_sidata+0x35c02d7a>
 10000e4:	f8f42623          	sw	a5,-116(s0)
 10000e8:	a7efc7b7          	lui	a5,0xa7efc
 10000ec:	24978793          	addi	a5,a5,585 # a7efc249 <_ebss+0x27efc249>
 10000f0:	f8f42823          	sw	a5,-112(s0)
 10000f4:	61a797b7          	lui	a5,0x61a79
 10000f8:	bb878793          	addi	a5,a5,-1096 # 61a78bb8 <_sidata+0x60a7879c>
 10000fc:	f8f42a23          	sw	a5,-108(s0)
 1000100:	3b0a27b7          	lui	a5,0x3b0a2
 1000104:	d2b78793          	addi	a5,a5,-725 # 3b0a1d2b <_sidata+0x3a0a190f>
 1000108:	f8f42c23          	sw	a5,-104(s0)
 100010c:	4dbfd7b7          	lui	a5,0x4dbfd
 1000110:	a7678793          	addi	a5,a5,-1418 # 4dbfca76 <_sidata+0x4cbfc65a>
 1000114:	f8f42e23          	sw	a5,-100(s0)
 1000118:	ae1627b7          	lui	a5,0xae162
 100011c:	16778793          	addi	a5,a5,359 # ae162167 <_ebss+0x2e162167>
 1000120:	faf42023          	sw	a5,-96(s0)
 1000124:	30d777b7          	lui	a5,0x30d77
 1000128:	b0a78793          	addi	a5,a5,-1270 # 30d76b0a <_sidata+0x2fd766ee>
 100012c:	faf42223          	sw	a5,-92(s0)
 1000130:	431927b7          	lui	a5,0x43192
 1000134:	30478793          	addi	a5,a5,772 # 43192304 <_sidata+0x42191ee8>
 1000138:	faf42423          	sw	a5,-88(s0)
 100013c:	f6cc17b7          	lui	a5,0xf6cc1
 1000140:	43178793          	addi	a5,a5,1073 # f6cc1431 <_ebss+0x76cc1431>
 1000144:	faf42623          	sw	a5,-84(s0)
 1000148:	650467b7          	lui	a5,0x65046
 100014c:	38078793          	addi	a5,a5,896 # 65046380 <_sidata+0x64045f64>
 1000150:	faf42823          	sw	a5,-80(s0)
 1000154:	fe042423          	sw	zero,-24(s0)
 1000158:	fe042223          	sw	zero,-28(s0)
 100015c:	fe042623          	sw	zero,-20(s0)
 1000160:	00100793          	li	a5,1
 1000164:	f4f42223          	sw	a5,-188(s0)
 1000168:	00f2aa23          	sw	a5,20(t0) # 100014 <__stack_size+0xffc14>
 100016c:	0107d313          	srli	t1,a5,0x10
 1000170:	0062aa23          	sw	t1,20(t0)
 1000174:	00100793          	li	a5,1
 1000178:	f4f42423          	sw	a5,-184(s0)
 100017c:	00f2aa23          	sw	a5,20(t0)
 1000180:	0107d313          	srli	t1,a5,0x10
 1000184:	0062aa23          	sw	t1,20(t0)
 1000188:	f2042a23          	sw	zero,-204(s0)
 100018c:	f2042c23          	sw	zero,-200(s0)
 1000190:	f4442783          	lw	a5,-188(s0)
 1000194:	fef42423          	sw	a5,-24(s0)
 1000198:	f4842783          	lw	a5,-184(s0)
 100019c:	fef42223          	sw	a5,-28(s0)
 10001a0:	00100793          	li	a5,1
 10001a4:	fef42623          	sw	a5,-20(s0)
 10001a8:	0e80006f          	j	1000290 <reset_handler+0x290>
 10001ac:	fec42783          	lw	a5,-20(s0)
 10001b0:	00179793          	slli	a5,a5,0x1
 10001b4:	fcf42e23          	sw	a5,-36(s0)
 10001b8:	fe442783          	lw	a5,-28(s0)
 10001bc:	01f7f793          	andi	a5,a5,31
 10001c0:	fcf42823          	sw	a5,-48(s0)
 10001c4:	02000713          	li	a4,32
 10001c8:	fd042783          	lw	a5,-48(s0)
 10001cc:	40f707b3          	sub	a5,a4,a5
 10001d0:	fcf42623          	sw	a5,-52(s0)
 10001d4:	fe842703          	lw	a4,-24(s0)
 10001d8:	fe442783          	lw	a5,-28(s0)
 10001dc:	00f74733          	xor	a4,a4,a5
 10001e0:	fd042783          	lw	a5,-48(s0)
 10001e4:	00f71733          	sll	a4,a4,a5
 10001e8:	fe842683          	lw	a3,-24(s0)
 10001ec:	fe442783          	lw	a5,-28(s0)
 10001f0:	00f6c6b3          	xor	a3,a3,a5
 10001f4:	fcc42783          	lw	a5,-52(s0)
 10001f8:	00f6d7b3          	srl	a5,a3,a5
 10001fc:	00f76733          	or	a4,a4,a5
 1000200:	fdc42783          	lw	a5,-36(s0)
 1000204:	00279793          	slli	a5,a5,0x2
 1000208:	ff078793          	addi	a5,a5,-16
 100020c:	008787b3          	add	a5,a5,s0
 1000210:	f5c7a783          	lw	a5,-164(a5)
 1000214:	00f707b3          	add	a5,a4,a5
 1000218:	fef42423          	sw	a5,-24(s0)
 100021c:	fe842783          	lw	a5,-24(s0)
 1000220:	01f7f793          	andi	a5,a5,31
 1000224:	fcf42823          	sw	a5,-48(s0)
 1000228:	02000713          	li	a4,32
 100022c:	fd042783          	lw	a5,-48(s0)
 1000230:	40f707b3          	sub	a5,a4,a5
 1000234:	fcf42623          	sw	a5,-52(s0)
 1000238:	fe842703          	lw	a4,-24(s0)
 100023c:	fe442783          	lw	a5,-28(s0)
 1000240:	00f74733          	xor	a4,a4,a5
 1000244:	fd042783          	lw	a5,-48(s0)
 1000248:	00f71733          	sll	a4,a4,a5
 100024c:	fe842683          	lw	a3,-24(s0)
 1000250:	fe442783          	lw	a5,-28(s0)
 1000254:	00f6c6b3          	xor	a3,a3,a5
 1000258:	fcc42783          	lw	a5,-52(s0)
 100025c:	00f6d7b3          	srl	a5,a3,a5
 1000260:	00f76733          	or	a4,a4,a5
 1000264:	fdc42783          	lw	a5,-36(s0)
 1000268:	00178793          	addi	a5,a5,1
 100026c:	00279793          	slli	a5,a5,0x2
 1000270:	ff078793          	addi	a5,a5,-16
 1000274:	008787b3          	add	a5,a5,s0
 1000278:	f5c7a783          	lw	a5,-164(a5)
 100027c:	00f707b3          	add	a5,a4,a5
 1000280:	fef42223          	sw	a5,-28(s0)
 1000284:	fec42783          	lw	a5,-20(s0)
 1000288:	00178793          	addi	a5,a5,1
 100028c:	fef42623          	sw	a5,-20(s0)
 1000290:	fec42703          	lw	a4,-20(s0)
 1000294:	fe042783          	lw	a5,-32(s0)
 1000298:	f0e7fae3          	bgeu	a5,a4,10001ac <reset_handler+0x1ac>
 100029c:	fe842783          	lw	a5,-24(s0)
 10002a0:	f2f42a23          	sw	a5,-204(s0)
 10002a4:	00f2aa23          	sw	a5,20(t0)
 10002a8:	0107d313          	srli	t1,a5,0x10
 10002ac:	0062aa23          	sw	t1,20(t0)
 10002b0:	fe442783          	lw	a5,-28(s0)
 10002b4:	f2f42c23          	sw	a5,-200(s0)
 10002b8:	00f2aa23          	sw	a5,20(t0)
 10002bc:	0107d313          	srli	t1,a5,0x10
 10002c0:	0062aa23          	sw	t1,20(t0)
 10002c4:	fe042783          	lw	a5,-32(s0)
 10002c8:	fef42623          	sw	a5,-20(s0)
 10002cc:	10c0006f          	j	10003d8 <reset_handler+0x3d8>
 10002d0:	fec42783          	lw	a5,-20(s0)
 10002d4:	00179793          	slli	a5,a5,0x1
 10002d8:	fcf42e23          	sw	a5,-36(s0)
 10002dc:	fe842783          	lw	a5,-24(s0)
 10002e0:	01f7f793          	andi	a5,a5,31
 10002e4:	fcf42c23          	sw	a5,-40(s0)
 10002e8:	02000713          	li	a4,32
 10002ec:	fd842783          	lw	a5,-40(s0)
 10002f0:	40f707b3          	sub	a5,a4,a5
 10002f4:	fcf42a23          	sw	a5,-44(s0)
 10002f8:	fdc42783          	lw	a5,-36(s0)
 10002fc:	00178793          	addi	a5,a5,1
 1000300:	00279793          	slli	a5,a5,0x2
 1000304:	ff078793          	addi	a5,a5,-16
 1000308:	008787b3          	add	a5,a5,s0
 100030c:	f5c7a783          	lw	a5,-164(a5)
 1000310:	fe442703          	lw	a4,-28(s0)
 1000314:	40f70733          	sub	a4,a4,a5
 1000318:	fd842783          	lw	a5,-40(s0)
 100031c:	00f75733          	srl	a4,a4,a5
 1000320:	fdc42783          	lw	a5,-36(s0)
 1000324:	00178793          	addi	a5,a5,1
 1000328:	00279793          	slli	a5,a5,0x2
 100032c:	ff078793          	addi	a5,a5,-16
 1000330:	008787b3          	add	a5,a5,s0
 1000334:	f5c7a783          	lw	a5,-164(a5)
 1000338:	fe442683          	lw	a3,-28(s0)
 100033c:	40f686b3          	sub	a3,a3,a5
 1000340:	fd442783          	lw	a5,-44(s0)
 1000344:	00f697b3          	sll	a5,a3,a5
 1000348:	00f767b3          	or	a5,a4,a5
 100034c:	fe842703          	lw	a4,-24(s0)
 1000350:	00f747b3          	xor	a5,a4,a5
 1000354:	fef42223          	sw	a5,-28(s0)
 1000358:	fe442783          	lw	a5,-28(s0)
 100035c:	01f7f793          	andi	a5,a5,31
 1000360:	fcf42c23          	sw	a5,-40(s0)
 1000364:	02000713          	li	a4,32
 1000368:	fd842783          	lw	a5,-40(s0)
 100036c:	40f707b3          	sub	a5,a4,a5
 1000370:	fcf42a23          	sw	a5,-44(s0)
 1000374:	fdc42783          	lw	a5,-36(s0)
 1000378:	00279793          	slli	a5,a5,0x2
 100037c:	ff078793          	addi	a5,a5,-16
 1000380:	008787b3          	add	a5,a5,s0
 1000384:	f5c7a783          	lw	a5,-164(a5)
 1000388:	fe842703          	lw	a4,-24(s0)
 100038c:	40f70733          	sub	a4,a4,a5
 1000390:	fd842783          	lw	a5,-40(s0)
 1000394:	00f75733          	srl	a4,a4,a5
 1000398:	fdc42783          	lw	a5,-36(s0)
 100039c:	00279793          	slli	a5,a5,0x2
 10003a0:	ff078793          	addi	a5,a5,-16
 10003a4:	008787b3          	add	a5,a5,s0
 10003a8:	f5c7a783          	lw	a5,-164(a5)
 10003ac:	fe842683          	lw	a3,-24(s0)
 10003b0:	40f686b3          	sub	a3,a3,a5
 10003b4:	fd442783          	lw	a5,-44(s0)
 10003b8:	00f697b3          	sll	a5,a3,a5
 10003bc:	00f767b3          	or	a5,a4,a5
 10003c0:	fe442703          	lw	a4,-28(s0)
 10003c4:	00f747b3          	xor	a5,a4,a5
 10003c8:	fef42423          	sw	a5,-24(s0)
 10003cc:	fec42783          	lw	a5,-20(s0)
 10003d0:	fff78793          	addi	a5,a5,-1
 10003d4:	fef42623          	sw	a5,-20(s0)
 10003d8:	fec42783          	lw	a5,-20(s0)
 10003dc:	ee079ae3          	bnez	a5,10002d0 <reset_handler+0x2d0>
 10003e0:	fe442783          	lw	a5,-28(s0)
 10003e4:	f4f42023          	sw	a5,-192(s0)
 10003e8:	00f2aa23          	sw	a5,20(t0)
 10003ec:	0107d313          	srli	t1,a5,0x10
 10003f0:	0062aa23          	sw	t1,20(t0)
 10003f4:	fe842783          	lw	a5,-24(s0)
 10003f8:	f2f42e23          	sw	a5,-196(s0)
 10003fc:	00f2aa23          	sw	a5,20(t0)
 1000400:	0107d313          	srli	t1,a5,0x10
 1000404:	0062aa23          	sw	t1,20(t0)
 1000408:	00000793          	li	a5,0
 100040c:	00078513          	mv	a0,a5
 1000410:	0c812403          	lw	s0,200(sp)
 1000414:	0d010113          	addi	sp,sp,208
 1000418:	00100073          	ebreak
